target datalayout = "e-m:e-p270:32:32-p271:32:32-p272:64:64-i64:64-i128:128-f80:128-n8:16:32:64-S128"
target triple = "x86_64-pc-linux-gnu"

%struct.SDL_GUID = type { [16 x i8] }
%struct.SDL_VirtualJoystickDesc = type { i32, i16, i16, i16, i16, i16, i16, i16, i16, i16, i16, [2 x i16], i32, i32, ptr, ptr, ptr, ptr, ptr, ptr, ptr, ptr, ptr, ptr, ptr, ptr }
%struct.joystick_hwdata = type { i32, i8, ptr, i32, %struct.SDL_GUID, %struct.SDL_VirtualJoystickDesc, i32, ptr, ptr, ptr, ptr, ptr, ptr, i8, i32, i32, ptr, ptr, ptr }
%struct.SDL_JoystickTouchpadInfo = type { i32, ptr }
%struct.SDL_Joystick = type { i32, ptr, ptr, ptr, %struct.SDL_GUID, i16, i64, i8, i8, i32, ptr, i32, ptr, i32, ptr, i32, ptr, i32, ptr, i32, i32, ptr, i16, i16, i64, i64, i16, i16, i64, i64, i8, i8, i8, i64, i8, i32, i32, i32, i8, i32, ptr, i32, ptr, [3 x [3 x float]], i64, ptr, ptr, i32, i32, ptr }

@g_VJoys = internal global ptr null, align 8

; Function Attrs: nounwind uwtable
define internal void @VIRTUAL_FreeHWData(ptr noundef %0) #0 {
  %2 = alloca ptr, align 8
  %3 = alloca ptr, align 8
  %4 = alloca ptr, align 8
  %5 = alloca i32, align 4
  %6 = alloca i16, align 2
  store ptr %0, ptr %2, align 8
  call void @llvm.lifetime.start.p0(i64 8, ptr %3) #7
  call void @llvm.lifetime.start.p0(i64 8, ptr %4) #7
  store ptr null, ptr %4, align 8
  call void @SDL_AssertJoysticksLocked()
  %7 = load ptr, ptr %2, align 8
  %8 = icmp ne ptr %7, null
  br i1 %8, label %10, label %9

9:                                                ; preds = %1
  store i32 1, ptr %5, align 4
  br label %186

10:                                               ; preds = %1
  %11 = load ptr, ptr %2, align 8
  %12 = getelementptr inbounds nuw %struct.joystick_hwdata, ptr %11, i32 0, i32 5
  %13 = getelementptr inbounds nuw %struct.SDL_VirtualJoystickDesc, ptr %12, i32 0, i32 25
  %14 = load ptr, ptr %13, align 8
  %15 = icmp ne ptr %14, null
  br i1 %15, label %16, label %25

16:                                               ; preds = %10
  %17 = load ptr, ptr %2, align 8
  %18 = getelementptr inbounds nuw %struct.joystick_hwdata, ptr %17, i32 0, i32 5
  %19 = getelementptr inbounds nuw %struct.SDL_VirtualJoystickDesc, ptr %18, i32 0, i32 25
  %20 = load ptr, ptr %19, align 8
  %21 = load ptr, ptr %2, align 8
  %22 = getelementptr inbounds nuw %struct.joystick_hwdata, ptr %21, i32 0, i32 5
  %23 = getelementptr inbounds nuw %struct.SDL_VirtualJoystickDesc, ptr %22, i32 0, i32 17
  %24 = load ptr, ptr %23, align 8
  call void %20(ptr noundef %24)
  br label %25

25:                                               ; preds = %16, %10
  %26 = load ptr, ptr @g_VJoys, align 8
  store ptr %26, ptr %3, align 8
  br label %27

27:                                               ; preds = %49, %25
  %28 = load ptr, ptr %3, align 8
  %29 = icmp ne ptr %28, null
  br i1 %29, label %30, label %54

30:                                               ; preds = %27
  %31 = load ptr, ptr %2, align 8
  %32 = load ptr, ptr %3, align 8
  %33 = icmp eq ptr %31, %32
  br i1 %33, label %34, label %48

34:                                               ; preds = %30
  %35 = load ptr, ptr %4, align 8
  %36 = icmp ne ptr %35, null
  br i1 %36, label %37, label %43

37:                                               ; preds = %34
  %38 = load ptr, ptr %3, align 8
  %39 = getelementptr inbounds nuw %struct.joystick_hwdata, ptr %38, i32 0, i32 18
  %40 = load ptr, ptr %39, align 8
  %41 = load ptr, ptr %4, align 8
  %42 = getelementptr inbounds nuw %struct.joystick_hwdata, ptr %41, i32 0, i32 18
  store ptr %40, ptr %42, align 8
  br label %47

43:                                               ; preds = %34
  %44 = load ptr, ptr %3, align 8
  %45 = getelementptr inbounds nuw %struct.joystick_hwdata, ptr %44, i32 0, i32 18
  %46 = load ptr, ptr %45, align 8
  store ptr %46, ptr @g_VJoys, align 8
  br label %47

47:                                               ; preds = %43, %37
  br label %54

48:                                               ; preds = %30
  br label %49

49:                                               ; preds = %48
  %50 = load ptr, ptr %3, align 8
  store ptr %50, ptr %4, align 8
  %51 = load ptr, ptr %3, align 8
  %52 = getelementptr inbounds nuw %struct.joystick_hwdata, ptr %51, i32 0, i32 18
  %53 = load ptr, ptr %52, align 8
  store ptr %53, ptr %3, align 8
  br label %27, !llvm.loop !9

54:                                               ; preds = %47, %27
  %55 = load ptr, ptr %2, align 8
  %56 = getelementptr inbounds nuw %struct.joystick_hwdata, ptr %55, i32 0, i32 17
  %57 = load ptr, ptr %56, align 8
  %58 = icmp ne ptr %57, null
  br i1 %58, label %59, label %66

59:                                               ; preds = %54
  %60 = load ptr, ptr %2, align 8
  %61 = getelementptr inbounds nuw %struct.joystick_hwdata, ptr %60, i32 0, i32 17
  %62 = load ptr, ptr %61, align 8
  %63 = getelementptr inbounds nuw %struct.SDL_Joystick, ptr %62, i32 0, i32 46
  store ptr null, ptr %63, align 8
  %64 = load ptr, ptr %2, align 8
  %65 = getelementptr inbounds nuw %struct.joystick_hwdata, ptr %64, i32 0, i32 17
  store ptr null, ptr %65, align 8
  br label %66

66:                                               ; preds = %59, %54
  %67 = load ptr, ptr %2, align 8
  %68 = getelementptr inbounds nuw %struct.joystick_hwdata, ptr %67, i32 0, i32 2
  %69 = load ptr, ptr %68, align 8
  %70 = icmp ne ptr %69, null
  br i1 %70, label %71, label %77

71:                                               ; preds = %66
  %72 = load ptr, ptr %2, align 8
  %73 = getelementptr inbounds nuw %struct.joystick_hwdata, ptr %72, i32 0, i32 2
  %74 = load ptr, ptr %73, align 8
  call void @SDL_free_REAL(ptr noundef %74)
  %75 = load ptr, ptr %2, align 8
  %76 = getelementptr inbounds nuw %struct.joystick_hwdata, ptr %75, i32 0, i32 2
  store ptr null, ptr %76, align 8
  br label %77

77:                                               ; preds = %71, %66
  %78 = load ptr, ptr %2, align 8
  %79 = getelementptr inbounds nuw %struct.joystick_hwdata, ptr %78, i32 0, i32 7
  %80 = load ptr, ptr %79, align 8
  %81 = icmp ne ptr %80, null
  br i1 %81, label %82, label %88

82:                                               ; preds = %77
  %83 = load ptr, ptr %2, align 8
  %84 = getelementptr inbounds nuw %struct.joystick_hwdata, ptr %83, i32 0, i32 7
  %85 = load ptr, ptr %84, align 8
  call void @SDL_free_REAL(ptr noundef %85)
  %86 = load ptr, ptr %2, align 8
  %87 = getelementptr inbounds nuw %struct.joystick_hwdata, ptr %86, i32 0, i32 7
  store ptr null, ptr %87, align 8
  br label %88

88:                                               ; preds = %82, %77
  %89 = load ptr, ptr %2, align 8
  %90 = getelementptr inbounds nuw %struct.joystick_hwdata, ptr %89, i32 0, i32 8
  %91 = load ptr, ptr %90, align 8
  %92 = icmp ne ptr %91, null
  br i1 %92, label %93, label %99

93:                                               ; preds = %88
  %94 = load ptr, ptr %2, align 8
  %95 = getelementptr inbounds nuw %struct.joystick_hwdata, ptr %94, i32 0, i32 8
  %96 = load ptr, ptr %95, align 8
  call void @SDL_free_REAL(ptr noundef %96)
  %97 = load ptr, ptr %2, align 8
  %98 = getelementptr inbounds nuw %struct.joystick_hwdata, ptr %97, i32 0, i32 8
  store ptr null, ptr %98, align 8
  br label %99

99:                                               ; preds = %93, %88
  %100 = load ptr, ptr %2, align 8
  %101 = getelementptr inbounds nuw %struct.joystick_hwdata, ptr %100, i32 0, i32 9
  %102 = load ptr, ptr %101, align 8
  %103 = icmp ne ptr %102, null
  br i1 %103, label %104, label %110

104:                                              ; preds = %99
  %105 = load ptr, ptr %2, align 8
  %106 = getelementptr inbounds nuw %struct.joystick_hwdata, ptr %105, i32 0, i32 9
  %107 = load ptr, ptr %106, align 8
  call void @SDL_free_REAL(ptr noundef %107)
  %108 = load ptr, ptr %2, align 8
  %109 = getelementptr inbounds nuw %struct.joystick_hwdata, ptr %108, i32 0, i32 9
  store ptr null, ptr %109, align 8
  br label %110

110:                                              ; preds = %104, %99
  %111 = load ptr, ptr %2, align 8
  %112 = getelementptr inbounds nuw %struct.joystick_hwdata, ptr %111, i32 0, i32 10
  %113 = load ptr, ptr %112, align 8
  %114 = icmp ne ptr %113, null
  br i1 %114, label %115, label %121

115:                                              ; preds = %110
  %116 = load ptr, ptr %2, align 8
  %117 = getelementptr inbounds nuw %struct.joystick_hwdata, ptr %116, i32 0, i32 10
  %118 = load ptr, ptr %117, align 8
  call void @SDL_free_REAL(ptr noundef %118)
  %119 = load ptr, ptr %2, align 8
  %120 = getelementptr inbounds nuw %struct.joystick_hwdata, ptr %119, i32 0, i32 10
  store ptr null, ptr %120, align 8
  br label %121

121:                                              ; preds = %115, %110
  %122 = load ptr, ptr %2, align 8
  %123 = getelementptr inbounds nuw %struct.joystick_hwdata, ptr %122, i32 0, i32 11
  %124 = load ptr, ptr %123, align 8
  %125 = icmp ne ptr %124, null
  br i1 %125, label %126, label %162

126:                                              ; preds = %121
  call void @llvm.lifetime.start.p0(i64 2, ptr %6) #7
  store i16 0, ptr %6, align 2
  br label %127

127:                                              ; preds = %153, %126
  %128 = load i16, ptr %6, align 2
  %129 = zext i16 %128 to i32
  %130 = load ptr, ptr %2, align 8
  %131 = getelementptr inbounds nuw %struct.joystick_hwdata, ptr %130, i32 0, i32 5
  %132 = getelementptr inbounds nuw %struct.SDL_VirtualJoystickDesc, ptr %131, i32 0, i32 9
  %133 = load i16, ptr %132, align 4
  %134 = zext i16 %133 to i32
  %135 = icmp slt i32 %129, %134
  br i1 %135, label %137, label %136

136:                                              ; preds = %127
  store i32 5, ptr %5, align 4
  call void @llvm.lifetime.end.p0(i64 2, ptr %6) #7
  br label %156

137:                                              ; preds = %127
  %138 = load ptr, ptr %2, align 8
  %139 = getelementptr inbounds nuw %struct.joystick_hwdata, ptr %138, i32 0, i32 11
  %140 = load ptr, ptr %139, align 8
  %141 = load i16, ptr %6, align 2
  %142 = zext i16 %141 to i64
  %143 = getelementptr inbounds nuw %struct.SDL_JoystickTouchpadInfo, ptr %140, i64 %142
  %144 = getelementptr inbounds nuw %struct.SDL_JoystickTouchpadInfo, ptr %143, i32 0, i32 1
  %145 = load ptr, ptr %144, align 8
  call void @SDL_free_REAL(ptr noundef %145)
  %146 = load ptr, ptr %2, align 8
  %147 = getelementptr inbounds nuw %struct.joystick_hwdata, ptr %146, i32 0, i32 11
  %148 = load ptr, ptr %147, align 8
  %149 = load i16, ptr %6, align 2
  %150 = zext i16 %149 to i64
  %151 = getelementptr inbounds nuw %struct.SDL_JoystickTouchpadInfo, ptr %148, i64 %150
  %152 = getelementptr inbounds nuw %struct.SDL_JoystickTouchpadInfo, ptr %151, i32 0, i32 1
  store ptr null, ptr %152, align 8
  br label %153

153:                                              ; preds = %137
  %154 = load i16, ptr %6, align 2
  %155 = add i16 %154, 1
  store i16 %155, ptr %6, align 2
  br label %127, !llvm.loop !10

156:                                              ; preds = %136
  %157 = load ptr, ptr %2, align 8
  %158 = getelementptr inbounds nuw %struct.joystick_hwdata, ptr %157, i32 0, i32 11
  %159 = load ptr, ptr %158, align 8
  call void @SDL_free_REAL(ptr noundef %159)
  %160 = load ptr, ptr %2, align 8
  %161 = getelementptr inbounds nuw %struct.joystick_hwdata, ptr %160, i32 0, i32 11
  store ptr null, ptr %161, align 8
  br label %162

162:                                              ; preds = %156, %121
  %163 = load ptr, ptr %2, align 8
  %164 = getelementptr inbounds nuw %struct.joystick_hwdata, ptr %163, i32 0, i32 12
  %165 = load ptr, ptr %164, align 8
  %166 = icmp ne ptr %165, null
  br i1 %166, label %167, label %173

167:                                              ; preds = %162
  %168 = load ptr, ptr %2, align 8
  %169 = getelementptr inbounds nuw %struct.joystick_hwdata, ptr %168, i32 0, i32 12
  %170 = load ptr, ptr %169, align 8
  call void @SDL_free_REAL(ptr noundef %170)
  %171 = load ptr, ptr %2, align 8
  %172 = getelementptr inbounds nuw %struct.joystick_hwdata, ptr %171, i32 0, i32 12
  store ptr null, ptr %172, align 8
  br label %173

173:                                              ; preds = %167, %162
  %174 = load ptr, ptr %2, align 8
  %175 = getelementptr inbounds nuw %struct.joystick_hwdata, ptr %174, i32 0, i32 16
  %176 = load ptr, ptr %175, align 8
  %177 = icmp ne ptr %176, null
  br i1 %177, label %178, label %184

178:                                              ; preds = %173
  %179 = load ptr, ptr %2, align 8
  %180 = getelementptr inbounds nuw %struct.joystick_hwdata, ptr %179, i32 0, i32 16
  %181 = load ptr, ptr %180, align 8
  call void @SDL_free_REAL(ptr noundef %181)
  %182 = load ptr, ptr %2, align 8
  %183 = getelementptr inbounds nuw %struct.joystick_hwdata, ptr %182, i32 0, i32 16
  store ptr null, ptr %183, align 8
  br label %184

184:                                              ; preds = %178, %173
  %185 = load ptr, ptr %2, align 8
  call void @SDL_free_REAL(ptr noundef %185)
  store i32 0, ptr %5, align 4
  br label %186

186:                                              ; preds = %184, %9
  call void @llvm.lifetime.end.p0(i64 8, ptr %4) #7
  call void @llvm.lifetime.end.p0(i64 8, ptr %3) #7
  %187 = load i32, ptr %5, align 4
  switch i32 %187, label %189 [
    i32 0, label %188
    i32 1, label %188
  ]

188:                                              ; preds = %186, %186
  ret void

189:                                              ; preds = %186
  unreachable
}