; Function Attrs: nounwind uwtable
define internal fastcc void @VIRTUAL_FreeHWData(ptr noundef %0) unnamed_addr #0 {
  tail call void @SDL_AssertJoysticksLocked() #8
  %.not = icmp eq ptr %0, null
  br i1 %.not, label %64, label %2

2:                                                ; preds = %1
  %3 = getelementptr inbounds nuw i8, ptr %0, i64 168
  %4 = load ptr, ptr %3, align 8
  %.not59 = icmp eq ptr %4, null
  br i1 %.not59, label %8, label %5

5:                                                ; preds = %2
  %6 = getelementptr inbounds nuw i8, ptr %0, i64 104
  %7 = load ptr, ptr %6, align 8
  tail call void %4(ptr noundef %7) #8
  br label %8

8:                                                ; preds = %5, %2
  %.04873 = load ptr, ptr @g_VJoys, align 8
  %.not6074 = icmp eq ptr %.04873, null
  br i1 %.not6074, label %.loopexit, label %.lr.ph.preheader

.lr.ph.preheader:                                 ; preds = %8
  %9 = icmp eq ptr %0, %.04873
  br i1 %9, label %.lr.ph._crit_edge, label %.lr.ph88

.lr.ph:                                           ; preds = %.lr.ph88
  %10 = icmp eq ptr %0, %.048
  br i1 %10, label %.lr.ph._crit_edge, label %.lr.ph88, !llvm.loop !9

.lr.ph._crit_edge:                                ; preds = %.lr.ph, %.lr.ph.preheader
  %.04876.lcssa = phi ptr [ %.04873, %.lr.ph.preheader ], [ %.048, %.lr.ph ]
  %.04775.lcssa = phi ptr [ null, %.lr.ph.preheader ], [ %.0487687, %.lr.ph ]
  %.not61 = icmp eq ptr %.04775.lcssa, null
  %11 = getelementptr inbounds nuw i8, ptr %.04876.lcssa, i64 264
  %12 = load ptr, ptr %11, align 8
  br i1 %.not61, label %15, label %13

13:                                               ; preds = %.lr.ph._crit_edge
  %14 = getelementptr inbounds nuw i8, ptr %.04775.lcssa, i64 264
  store ptr %12, ptr %14, align 8
  br label %.loopexit

15:                                               ; preds = %.lr.ph._crit_edge
  store ptr %12, ptr @g_VJoys, align 8
  br label %.loopexit

.lr.ph88:                                         ; preds = %.lr.ph.preheader, %.lr.ph
  %.0487687 = phi ptr [ %.048, %.lr.ph ], [ %.04873, %.lr.ph.preheader ]
  %16 = getelementptr inbounds nuw i8, ptr %.0487687, i64 264
  %.048 = load ptr, ptr %16, align 8
  %.not60 = icmp eq ptr %.048, null
  br i1 %.not60, label %.loopexit, label %.lr.ph, !llvm.loop !9

.loopexit:                                        ; preds = %.lr.ph88, %8, %13, %15
  %17 = getelementptr inbounds nuw i8, ptr %0, i64 256
  %18 = load ptr, ptr %17, align 8
  %.not62 = icmp eq ptr %18, null
  br i1 %.not62, label %21, label %19

19:                                               ; preds = %.loopexit
  %20 = getelementptr inbounds nuw i8, ptr %18, i64 328
  store ptr null, ptr %20, align 8
  store ptr null, ptr %17, align 8
  br label %21

21:                                               ; preds = %19, %.loopexit
  %22 = getelementptr inbounds nuw i8, ptr %0, i64 8
  %23 = load ptr, ptr %22, align 8
  %.not63 = icmp eq ptr %23, null
  br i1 %.not63, label %25, label %24

24:                                               ; preds = %21
  tail call void @SDL_free_REAL(ptr noundef nonnull %23) #8
  store ptr null, ptr %22, align 8
  br label %25

25:                                               ; preds = %24, %21
  %26 = getelementptr inbounds nuw i8, ptr %0, i64 184
  %27 = load ptr, ptr %26, align 8
  %.not64 = icmp eq ptr %27, null
  br i1 %.not64, label %29, label %28

28:                                               ; preds = %25
  tail call void @SDL_free_REAL(ptr noundef nonnull %27) #8
  store ptr null, ptr %26, align 8
  br label %29

29:                                               ; preds = %28, %25
  %30 = getelementptr inbounds nuw i8, ptr %0, i64 192
  %31 = load ptr, ptr %30, align 8
  %.not65 = icmp eq ptr %31, null
  br i1 %.not65, label %33, label %32

32:                                               ; preds = %29
  tail call void @SDL_free_REAL(ptr noundef nonnull %31) #8
  store ptr null, ptr %30, align 8
  br label %33

33:                                               ; preds = %32, %29
  %34 = getelementptr inbounds nuw i8, ptr %0, i64 200
  %35 = load ptr, ptr %34, align 8
  %.not66 = icmp eq ptr %35, null
  br i1 %.not66, label %37, label %36

36:                                               ; preds = %33
  tail call void @SDL_free_REAL(ptr noundef nonnull %35) #8
  store ptr null, ptr %34, align 8
  br label %37

37:                                               ; preds = %36, %33
  %38 = getelementptr inbounds nuw i8, ptr %0, i64 208
  %39 = load ptr, ptr %38, align 8
  %.not67 = icmp eq ptr %39, null
  br i1 %.not67, label %41, label %40

40:                                               ; preds = %37
  tail call void @SDL_free_REAL(ptr noundef nonnull %39) #8
  store ptr null, ptr %38, align 8
  br label %41

41:                                               ; preds = %40, %37
  %42 = getelementptr inbounds nuw i8, ptr %0, i64 216
  %43 = load ptr, ptr %42, align 8
  %.not68 = icmp eq ptr %43, null
  br i1 %.not68, label %55, label %.preheader

.preheader:                                       ; preds = %41
  %44 = getelementptr inbounds nuw i8, ptr %0, i64 60
  %45 = load i16, ptr %44, align 4
  %.not79 = icmp eq i16 %45, 0
  br i1 %.not79, label %._crit_edge, label %.lr.ph78

._crit_edge.loopexit:                             ; preds = %.lr.ph78
  %.pre = load ptr, ptr %42, align 8
  br label %._crit_edge

._crit_edge:                                      ; preds = %._crit_edge.loopexit, %.preheader
  %46 = phi ptr [ %.pre, %._crit_edge.loopexit ], [ %43, %.preheader ]
  tail call void @SDL_free_REAL(ptr noundef %46) #8
  store ptr null, ptr %42, align 8
  br label %55

.lr.ph78:                                         ; preds = %.preheader, %.lr.ph78
  %indvars.iv = phi i64 [ %indvars.iv.next, %.lr.ph78 ], [ 0, %.preheader ]
  %47 = load ptr, ptr %42, align 8
  %48 = getelementptr inbounds nuw %struct.SDL_JoystickTouchpadInfo, ptr %47, i64 %indvars.iv, i32 1
  %49 = load ptr, ptr %48, align 8
  tail call void @SDL_free_REAL(ptr noundef %49) #8
  %50 = load ptr, ptr %42, align 8
  %51 = getelementptr inbounds nuw %struct.SDL_JoystickTouchpadInfo, ptr %50, i64 %indvars.iv, i32 1
  store ptr null, ptr %51, align 8
  %indvars.iv.next = add nuw nsw i64 %indvars.iv, 1
  %52 = load i16, ptr %44, align 4
  %53 = zext i16 %52 to i64
  %54 = icmp samesign ult i64 %indvars.iv.next, %53
  br i1 %54, label %.lr.ph78, label %._crit_edge.loopexit, !llvm.loop !10

55:                                               ; preds = %._crit_edge, %41
  %56 = getelementptr inbounds nuw i8, ptr %0, i64 224
  %57 = load ptr, ptr %56, align 8
  %.not69 = icmp eq ptr %57, null
  br i1 %.not69, label %59, label %58

58:                                               ; preds = %55
  tail call void @SDL_free_REAL(ptr noundef nonnull %57) #8
  store ptr null, ptr %56, align 8
  br label %59

59:                                               ; preds = %58, %55
  %60 = getelementptr inbounds nuw i8, ptr %0, i64 248
  %61 = load ptr, ptr %60, align 8
  %.not70 = icmp eq ptr %61, null
  br i1 %.not70, label %63, label %62

62:                                               ; preds = %59
  tail call void @SDL_free_REAL(ptr noundef nonnull %61) #8
  store ptr null, ptr %60, align 8
  br label %63

63:                                               ; preds = %62, %59
  tail call void @SDL_free_REAL(ptr noundef nonnull %0) #8
  br label %64

64:                                               ; preds = %1, %63
  ret void
}